target datalayout = "e-m:e-p270:32:32-p271:32:32-p272:64:64-i64:64-i128:128-f80:128-n8:16:32:64-S128"
target triple = "x86_64-unknown-linux-gnu"

%"class.cvc5::internal::NodeBuilder" = type <{ %"class.cvc5::internal::expr::NodeValue", [10 x ptr], ptr, ptr, i32, [4 x i8] }>
%"class.cvc5::internal::expr::NodeValue" = type { i64, i16, i32, [0 x ptr] }
%"class.cvc5::internal::TypeNode" = type { ptr }
%"class.__gnu_cxx::__normal_iterator" = type { ptr }
%"struct.std::_Vector_base" = type { %"struct.std::_Vector_base<cvc5::internal::TypeNode, std::allocator<cvc5::internal::TypeNode>>::_Vector_impl" }
%"struct.std::_Vector_base<cvc5::internal::TypeNode, std::allocator<cvc5::internal::TypeNode>>::_Vector_impl" = type { %"struct.std::_Vector_base<cvc5::internal::TypeNode, std::allocator<cvc5::internal::TypeNode>>::_Vector_impl_data" }
%"struct.std::_Vector_base<cvc5::internal::TypeNode, std::allocator<cvc5::internal::TypeNode>>::_Vector_impl_data" = type { ptr, ptr, ptr }

; Function Attrs: mustprogress uwtable
define hidden void @_ZN4cvc58internal11NodeBuilder7reallocEv(ptr noundef nonnull align 8 dereferenceable(116) %this) #4 align 2 {
entry:
  %this.addr = alloca ptr, align 8
  %newSize = alloca i64, align 8
  %hardLimit = alloca i64, align 8
  store ptr %this, ptr %this.addr, align 8
  %this1 = load ptr, ptr %this.addr, align 8
  %d_nvMaxChildren = getelementptr inbounds %"class.cvc5::internal::NodeBuilder", ptr %this1, i32 0, i32 4
  %0 = load i32, ptr %d_nvMaxChildren, align 8
  %conv = zext i32 %0 to i64
  %mul = mul i64 2, %conv
  store i64 %mul, ptr %newSize, align 8
  store i64 67108863, ptr %hardLimit, align 8
  %1 = load i64, ptr %newSize, align 8
  %2 = load i64, ptr %hardLimit, align 8
  %cmp = icmp ugt i64 %1, %2
  br i1 %cmp, label %cond.true, label %cond.false

cond.true:                                        ; preds = %entry
  %3 = load i64, ptr %hardLimit, align 8
  br label %cond.end

cond.false:                                       ; preds = %entry
  %4 = load i64, ptr %newSize, align 8
  br label %cond.end

cond.end:                                         ; preds = %cond.false, %cond.true
  %cond = phi i64 [ %3, %cond.true ], [ %4, %cond.false ]
  call void @_ZN4cvc58internal11NodeBuilder7reallocEm(ptr noundef nonnull align 8 dereferenceable(116) %this1, i64 noundef %cond)
  ret void
}

; Function Attrs: mustprogress nounwind uwtable
define hidden noundef zeroext i1 @_ZNK4cvc58internal11NodeBuilder20nvNeedsToBeAllocatedEv(ptr noundef nonnull align 8 dereferenceable(116) %this) #5 align 2 {
entry:
  %this.addr = alloca ptr, align 8
  store ptr %this, ptr %this.addr, align 8
  %this1 = load ptr, ptr %this.addr, align 8
  %d_nv = getelementptr inbounds %"class.cvc5::internal::NodeBuilder", ptr %this1, i32 0, i32 2
  %0 = load ptr, ptr %d_nv, align 8
  %d_nchildren = getelementptr inbounds %"class.cvc5::internal::expr::NodeValue", ptr %0, i32 0, i32 2
  %bf.load = load i32, ptr %d_nchildren, align 4
  %bf.clear = and i32 %bf.load, 67108863
  %d_nvMaxChildren = getelementptr inbounds %"class.cvc5::internal::NodeBuilder", ptr %this1, i32 0, i32 4
  %1 = load i32, ptr %d_nvMaxChildren, align 8
  %cmp = icmp eq i32 %bf.clear, %1
  ret i1 %cmp
}

; Function Attrs: mustprogress uwtable
define linkonce_odr hidden void @_ZN4cvc58internal4expr9NodeValue3incEv(ptr noundef nonnull align 8 dereferenceable(16) %this) #4 comdat align 2 {
entry:
  %this.addr = alloca ptr, align 8
  store ptr %this, ptr %this.addr, align 8
  %this1 = load ptr, ptr %this.addr, align 8
  %bf.load = load i64, ptr %this1, align 8
  %bf.lshr = lshr i64 %bf.load, 40
  %bf.clear = and i64 %bf.lshr, 1048575
  %bf.cast = trunc i64 %bf.clear to i32
  %cmp = icmp ult i32 %bf.cast, 1048574
  br i1 %cmp, label %if.then, label %if.else

if.then:                                          ; preds = %entry
  %bf.load2 = load i64, ptr %this1, align 8
  %bf.lshr3 = lshr i64 %bf.load2, 40
  %bf.clear4 = and i64 %bf.lshr3, 1048575
  %bf.cast5 = trunc i64 %bf.clear4 to i32
  %inc = add i32 %bf.cast5, 1
  %0 = zext i32 %inc to i64
  %bf.load6 = load i64, ptr %this1, align 8
  %bf.value = and i64 %0, 1048575
  %bf.shl = shl i64 %bf.value, 40
  %bf.clear7 = and i64 %bf.load6, -1152920405095219201
  %bf.set = or i64 %bf.clear7, %bf.shl
  store i64 %bf.set, ptr %this1, align 8
  br label %if.end25

if.else:                                          ; preds = %entry
  %bf.load8 = load i64, ptr %this1, align 8
  %bf.lshr9 = lshr i64 %bf.load8, 40
  %bf.clear10 = and i64 %bf.lshr9, 1048575
  %bf.cast11 = trunc i64 %bf.clear10 to i32
  %cmp12 = icmp eq i32 %bf.cast11, 1048574
  br i1 %cmp12, label %if.then13, label %if.end

if.then13:                                        ; preds = %if.else
  %bf.load14 = load i64, ptr %this1, align 8
  %bf.lshr15 = lshr i64 %bf.load14, 40
  %bf.clear16 = and i64 %bf.lshr15, 1048575
  %bf.cast17 = trunc i64 %bf.clear16 to i32
  %inc18 = add i32 %bf.cast17, 1
  %1 = zext i32 %inc18 to i64
  %bf.load19 = load i64, ptr %this1, align 8
  %bf.value20 = and i64 %1, 1048575
  %bf.shl21 = shl i64 %bf.value20, 40
  %bf.clear22 = and i64 %bf.load19, -1152920405095219201
  %bf.set23 = or i64 %bf.clear22, %bf.shl21
  store i64 %bf.set23, ptr %this1, align 8
  call void @_ZN4cvc58internal4expr9NodeValue20markRefCountMaxedOutEv(ptr noundef nonnull align 8 dereferenceable(16) %this1)
  br label %if.end

if.end:                                           ; preds = %if.then13, %if.else
  br label %if.end25

if.end25:                                         ; preds = %if.end, %if.then
  ret void
}

; Function Attrs: mustprogress uwtable
define hidden void @_ZN4cvc58internal11NodeBuilder30allocateNvIfNecessaryForAppendEv(ptr noundef nonnull align 8 dereferenceable(116) %this) #4 align 2 {
entry:
  %this.addr = alloca ptr, align 8
  store ptr %this, ptr %this.addr, align 8
  %this1 = load ptr, ptr %this.addr, align 8
  %call = call noundef zeroext i1 @_ZNK4cvc58internal11NodeBuilder20nvNeedsToBeAllocatedEv(ptr noundef nonnull align 8 dereferenceable(116) %this1)
  br i1 %call, label %if.then, label %if.end

if.then:                                          ; preds = %entry
  call void @_ZN4cvc58internal11NodeBuilder7reallocEv(ptr noundef nonnull align 8 dereferenceable(116) %this1)
  br label %if.end

if.end:                                           ; preds = %if.then, %entry
  ret void
}

; Function Attrs: mustprogress nounwind uwtable
define linkonce_odr hidden noundef nonnull align 8 dereferenceable(8) ptr @_ZNK9__gnu_cxx17__normal_iteratorIPKN4cvc58internal8TypeNodeESt6vectorIS3_SaIS3_EEE4baseEv(ptr noundef nonnull align 8 dereferenceable(8) %this) #5 comdat align 2 {
entry:
  %this.addr = alloca ptr, align 8
  store ptr %this, ptr %this.addr, align 8
  %this1 = load ptr, ptr %this.addr, align 8
  %_M_current = getelementptr inbounds %"class.__gnu_cxx::__normal_iterator", ptr %this1, i32 0, i32 0
  ret ptr %_M_current
}

; Function Attrs: mustprogress nounwind uwtable
define linkonce_odr hidden noundef nonnull align 8 dereferenceable(8) ptr @_ZN9__gnu_cxx17__normal_iteratorIPKN4cvc58internal8TypeNodeESt6vectorIS3_SaIS3_EEEppEv(ptr noundef nonnull align 8 dereferenceable(8) %this) #5 comdat align 2 {
entry:
  %this.addr = alloca ptr, align 8
  store ptr %this, ptr %this.addr, align 8
  %this1 = load ptr, ptr %this.addr, align 8
  %_M_current = getelementptr inbounds %"class.__gnu_cxx::__normal_iterator", ptr %this1, i32 0, i32 0
  %0 = load ptr, ptr %_M_current, align 8
  %incdec.ptr = getelementptr inbounds %"class.cvc5::internal::TypeNode", ptr %0, i32 1
  store ptr %incdec.ptr, ptr %_M_current, align 8
  ret ptr %this1
}

; Function Attrs: mustprogress uwtable
define hidden noundef nonnull align 8 dereferenceable(116) ptr @_ZN4cvc58internal11NodeBuilder6appendERKNS0_8TypeNodeE(ptr noundef nonnull align 8 dereferenceable(116) %this, ptr noundef nonnull align 8 dereferenceable(8) %typeNode) #4 align 2 {
entry:
  %this.addr = alloca ptr, align 8
  %typeNode.addr = alloca ptr, align 8
  %nv = alloca ptr, align 8
  store ptr %this, ptr %this.addr, align 8
  store ptr %typeNode, ptr %typeNode.addr, align 8
  %this1 = load ptr, ptr %this.addr, align 8
  call void @_ZN4cvc58internal11NodeBuilder30allocateNvIfNecessaryForAppendEv(ptr noundef nonnull align 8 dereferenceable(116) %this1)
  %0 = load ptr, ptr %typeNode.addr, align 8
  %d_nv = getelementptr inbounds %"class.cvc5::internal::TypeNode", ptr %0, i32 0, i32 0
  %1 = load ptr, ptr %d_nv, align 8
  store ptr %1, ptr %nv, align 8
  %2 = load ptr, ptr %nv, align 8
  call void @_ZN4cvc58internal4expr9NodeValue3incEv(ptr noundef nonnull align 8 dereferenceable(16) %2)
  %3 = load ptr, ptr %nv, align 8
  %d_nv2 = getelementptr inbounds %"class.cvc5::internal::NodeBuilder", ptr %this1, i32 0, i32 2
  %4 = load ptr, ptr %d_nv2, align 8
  %d_children = getelementptr inbounds %"class.cvc5::internal::expr::NodeValue", ptr %4, i32 0, i32 3
  %d_nv3 = getelementptr inbounds %"class.cvc5::internal::NodeBuilder", ptr %this1, i32 0, i32 2
  %5 = load ptr, ptr %d_nv3, align 8
  %d_nchildren = getelementptr inbounds %"class.cvc5::internal::expr::NodeValue", ptr %5, i32 0, i32 2
  %bf.load = load i32, ptr %d_nchildren, align 4
  %bf.clear = and i32 %bf.load, 67108863
  %inc = add i32 %bf.clear, 1
  %bf.load4 = load i32, ptr %d_nchildren, align 4
  %bf.value = and i32 %inc, 67108863
  %bf.clear5 = and i32 %bf.load4, -67108864
  %bf.set = or i32 %bf.clear5, %bf.value
  store i32 %bf.set, ptr %d_nchildren, align 4
  %idxprom = zext i32 %bf.clear to i64
  %arrayidx = getelementptr inbounds [0 x ptr], ptr %d_children, i64 0, i64 %idxprom
  store ptr %3, ptr %arrayidx, align 8
  ret ptr %this1
}

; Function Attrs: mustprogress nounwind uwtable
define linkonce_odr hidden noundef nonnull align 8 dereferenceable(8) ptr @_ZNK9__gnu_cxx17__normal_iteratorIPKN4cvc58internal8TypeNodeESt6vectorIS3_SaIS3_EEEdeEv(ptr noundef nonnull align 8 dereferenceable(8) %this) #5 comdat align 2 {
entry:
  %this.addr = alloca ptr, align 8
  store ptr %this, ptr %this.addr, align 8
  %this1 = load ptr, ptr %this.addr, align 8
  %_M_current = getelementptr inbounds %"class.__gnu_cxx::__normal_iterator", ptr %this1, i32 0, i32 0
  %0 = load ptr, ptr %_M_current, align 8
  ret ptr %0
}

; Function Attrs: mustprogress nounwind uwtable
define linkonce_odr noundef zeroext i1 @_ZN9__gnu_cxxneIPKN4cvc58internal8TypeNodeESt6vectorIS3_SaIS3_EEEEbRKNS_17__normal_iteratorIT_T0_EESE_(ptr noundef nonnull align 8 dereferenceable(8) %__lhs, ptr noundef nonnull align 8 dereferenceable(8) %__rhs) #5 comdat {
entry:
  %__lhs.addr = alloca ptr, align 8
  %__rhs.addr = alloca ptr, align 8
  store ptr %__lhs, ptr %__lhs.addr, align 8
  store ptr %__rhs, ptr %__rhs.addr, align 8
  %0 = load ptr, ptr %__lhs.addr, align 8
  %call = call noundef nonnull align 8 dereferenceable(8) ptr @_ZNK9__gnu_cxx17__normal_iteratorIPKN4cvc58internal8TypeNodeESt6vectorIS3_SaIS3_EEE4baseEv(ptr noundef nonnull align 8 dereferenceable(8) %0) #3
  %1 = load ptr, ptr %call, align 8
  %2 = load ptr, ptr %__rhs.addr, align 8
  %call1 = call noundef nonnull align 8 dereferenceable(8) ptr @_ZNK9__gnu_cxx17__normal_iteratorIPKN4cvc58internal8TypeNodeESt6vectorIS3_SaIS3_EEE4baseEv(ptr noundef nonnull align 8 dereferenceable(8) %2) #3
  %3 = load ptr, ptr %call1, align 8
  %cmp = icmp ne ptr %1, %3
  ret i1 %cmp
}

; Function Attrs: mustprogress nounwind uwtable
define linkonce_odr hidden void @_ZN9__gnu_cxx17__normal_iteratorIPKN4cvc58internal8TypeNodeESt6vectorIS3_SaIS3_EEEC2ERKS5_(ptr noundef nonnull align 8 dereferenceable(8) %this, ptr noundef nonnull align 8 dereferenceable(8) %__i) unnamed_addr #5 comdat align 2 {
entry:
  %this.addr = alloca ptr, align 8
  %__i.addr = alloca ptr, align 8
  store ptr %this, ptr %this.addr, align 8
  store ptr %__i, ptr %__i.addr, align 8
  %this1 = load ptr, ptr %this.addr, align 8
  %_M_current = getelementptr inbounds %"class.__gnu_cxx::__normal_iterator", ptr %this1, i32 0, i32 0
  %0 = load ptr, ptr %__i.addr, align 8
  %1 = load ptr, ptr %0, align 8
  store ptr %1, ptr %_M_current, align 8
  ret void
}

; Function Attrs: mustprogress uwtable
define linkonce_odr hidden noundef nonnull align 8 dereferenceable(116) ptr @_ZN4cvc58internal11NodeBuilder6appendIN9__gnu_cxx17__normal_iteratorIPKNS0_8TypeNodeESt6vectorIS5_SaIS5_EEEEEERS1_RKT_SF_(ptr noundef nonnull align 8 dereferenceable(116) %this, ptr noundef nonnull align 8 dereferenceable(8) %begin, ptr noundef nonnull align 8 dereferenceable(8) %end) #4 comdat align 2 {
entry:
  %this.addr = alloca ptr, align 8
  %begin.addr = alloca ptr, align 8
  %end.addr = alloca ptr, align 8
  %i = alloca %"class.__gnu_cxx::__normal_iterator", align 8
  store ptr %this, ptr %this.addr, align 8
  store ptr %begin, ptr %begin.addr, align 8
  store ptr %end, ptr %end.addr, align 8
  %this1 = load ptr, ptr %this.addr, align 8
  %0 = load ptr, ptr %begin.addr, align 8
  call void @llvm.memcpy.p0.p0.i64(ptr align 8 %i, ptr align 8 %0, i64 8, i1 false)
  br label %for.cond

for.cond:                                         ; preds = %for.inc, %entry
  %1 = load ptr, ptr %end.addr, align 8
  %call = call noundef zeroext i1 @_ZN9__gnu_cxxneIPKN4cvc58internal8TypeNodeESt6vectorIS3_SaIS3_EEEEbRKNS_17__normal_iteratorIT_T0_EESE_(ptr noundef nonnull align 8 dereferenceable(8) %i, ptr noundef nonnull align 8 dereferenceable(8) %1) #3
  br i1 %call, label %for.body, label %for.end

for.body:                                         ; preds = %for.cond
  %call2 = call noundef nonnull align 8 dereferenceable(8) ptr @_ZNK9__gnu_cxx17__normal_iteratorIPKN4cvc58internal8TypeNodeESt6vectorIS3_SaIS3_EEEdeEv(ptr noundef nonnull align 8 dereferenceable(8) %i) #3
  %call3 = call noundef nonnull align 8 dereferenceable(116) ptr @_ZN4cvc58internal11NodeBuilder6appendERKNS0_8TypeNodeE(ptr noundef nonnull align 8 dereferenceable(116) %this1, ptr noundef nonnull align 8 dereferenceable(8) %call2)
  br label %for.inc

for.inc:                                          ; preds = %for.body
  %call4 = call noundef nonnull align 8 dereferenceable(8) ptr @_ZN9__gnu_cxx17__normal_iteratorIPKN4cvc58internal8TypeNodeESt6vectorIS3_SaIS3_EEEppEv(ptr noundef nonnull align 8 dereferenceable(8) %i) #3
  br label %for.cond, !llvm.loop !9

for.end:                                          ; preds = %for.cond
  ret ptr %this1
}

; Function Attrs: mustprogress nounwind uwtable
define linkonce_odr hidden ptr @_ZNKSt6vectorIN4cvc58internal8TypeNodeESaIS2_EE3endEv(ptr noundef nonnull align 8 dereferenceable(24) %this) #5 comdat align 2 {
entry:
  %retval = alloca %"class.__gnu_cxx::__normal_iterator", align 8
  %this.addr = alloca ptr, align 8
  store ptr %this, ptr %this.addr, align 8
  %this1 = load ptr, ptr %this.addr, align 8
  %_M_impl = getelementptr inbounds %"struct.std::_Vector_base", ptr %this1, i32 0, i32 0
  %_M_finish = getelementptr inbounds %"struct.std::_Vector_base<cvc5::internal::TypeNode, std::allocator<cvc5::internal::TypeNode>>::_Vector_impl_data", ptr %_M_impl, i32 0, i32 1
  call void @_ZN9__gnu_cxx17__normal_iteratorIPKN4cvc58internal8TypeNodeESt6vectorIS3_SaIS3_EEEC2ERKS5_(ptr noundef nonnull align 8 dereferenceable(8) %retval, ptr noundef nonnull align 8 dereferenceable(8) %_M_finish) #3
  %coerce.dive = getelementptr inbounds %"class.__gnu_cxx::__normal_iterator", ptr %retval, i32 0, i32 0
  %0 = load ptr, ptr %coerce.dive, align 8
  ret ptr %0
}

; Function Attrs: mustprogress nounwind uwtable
define linkonce_odr hidden ptr @_ZNKSt6vectorIN4cvc58internal8TypeNodeESaIS2_EE5beginEv(ptr noundef nonnull align 8 dereferenceable(24) %this) #5 comdat align 2 {
entry:
  %retval = alloca %"class.__gnu_cxx::__normal_iterator", align 8
  %this.addr = alloca ptr, align 8
  store ptr %this, ptr %this.addr, align 8
  %this1 = load ptr, ptr %this.addr, align 8
  %_M_impl = getelementptr inbounds %"struct.std::_Vector_base", ptr %this1, i32 0, i32 0
  %_M_start = getelementptr inbounds %"struct.std::_Vector_base<cvc5::internal::TypeNode, std::allocator<cvc5::internal::TypeNode>>::_Vector_impl_data", ptr %_M_impl, i32 0, i32 0
  call void @_ZN9__gnu_cxx17__normal_iteratorIPKN4cvc58internal8TypeNodeESt6vectorIS3_SaIS3_EEEC2ERKS5_(ptr noundef nonnull align 8 dereferenceable(8) %retval, ptr noundef nonnull align 8 dereferenceable(8) %_M_start) #3
  %coerce.dive = getelementptr inbounds %"class.__gnu_cxx::__normal_iterator", ptr %retval, i32 0, i32 0
  %0 = load ptr, ptr %coerce.dive, align 8
  ret ptr %0
}

; Function Attrs: mustprogress uwtable
define hidden noundef nonnull align 8 dereferenceable(116) ptr @_ZN4cvc58internal11NodeBuilder6appendERKSt6vectorINS0_8TypeNodeESaIS3_EE(ptr noundef nonnull align 8 dereferenceable(116) %this, ptr noundef nonnull align 8 dereferenceable(24) %children) #4 align 2 {
entry:
  %this.addr = alloca ptr, align 8
  %children.addr = alloca ptr, align 8
  %ref.tmp = alloca %"class.__gnu_cxx::__normal_iterator", align 8
  %ref.tmp2 = alloca %"class.__gnu_cxx::__normal_iterator", align 8
  store ptr %this, ptr %this.addr, align 8
  store ptr %children, ptr %children.addr, align 8
  %this1 = load ptr, ptr %this.addr, align 8
  %0 = load ptr, ptr %children.addr, align 8
  %call = call ptr @_ZNKSt6vectorIN4cvc58internal8TypeNodeESaIS2_EE5beginEv(ptr noundef nonnull align 8 dereferenceable(24) %0) #3
  %coerce.dive = getelementptr inbounds %"class.__gnu_cxx::__normal_iterator", ptr %ref.tmp, i32 0, i32 0
  store ptr %call, ptr %coerce.dive, align 8
  %1 = load ptr, ptr %children.addr, align 8
  %call3 = call ptr @_ZNKSt6vectorIN4cvc58internal8TypeNodeESaIS2_EE3endEv(ptr noundef nonnull align 8 dereferenceable(24) %1) #3
  %coerce.dive4 = getelementptr inbounds %"class.__gnu_cxx::__normal_iterator", ptr %ref.tmp2, i32 0, i32 0
  store ptr %call3, ptr %coerce.dive4, align 8
  %call5 = call noundef nonnull align 8 dereferenceable(116) ptr @_ZN4cvc58internal11NodeBuilder6appendIN9__gnu_cxx17__normal_iteratorIPKNS0_8TypeNodeESt6vectorIS5_SaIS5_EEEEEERS1_RKT_SF_(ptr noundef nonnull align 8 dereferenceable(116) %this1, ptr noundef nonnull align 8 dereferenceable(8) %ref.tmp, ptr noundef nonnull align 8 dereferenceable(8) %ref.tmp2)
  ret ptr %call5
}