; Function Attrs: mustprogress uwtable
define hidden noundef nonnull align 8 dereferenceable(116) ptr @_ZN4cvc58internal11NodeBuilder6appendERKSt6vectorINS0_8TypeNodeESaIS3_EE(ptr noundef nonnull returned align 8 dereferenceable(116) %this, ptr nocapture noundef nonnull readonly align 8 dereferenceable(24) %children) local_unnamed_addr #3 align 2 {
entry:
  %0 = load ptr, ptr %children, align 8
  %_M_finish.i = getelementptr inbounds i8, ptr %children, i64 8
  %1 = load ptr, ptr %_M_finish.i, align 8
  %cmp.i.not3.i = icmp eq ptr %1, %0
  br i1 %cmp.i.not3.i, label %_ZN4cvc58internal11NodeBuilder6appendIN9__gnu_cxx17__normal_iteratorIPKNS0_8TypeNodeESt6vectorIS5_SaIS5_EEEEEERS1_RKT_SF_.exit, label %for.body.lr.ph.i

for.body.lr.ph.i:                                 ; preds = %entry
  %d_nv.i.i.i.i = getelementptr inbounds i8, ptr %this, i64 96
  %d_nvMaxChildren.i.i.i.i = getelementptr inbounds i8, ptr %this, i64 112
  br label %for.body.i

for.body.i:                                       ; preds = %_ZN4cvc58internal11NodeBuilder6appendERKNS0_8TypeNodeE.exit.i, %for.body.lr.ph.i
  %i.sroa.0.04.i = phi ptr [ %0, %for.body.lr.ph.i ], [ %incdec.ptr.i.i, %_ZN4cvc58internal11NodeBuilder6appendERKNS0_8TypeNodeE.exit.i ]
  %2 = load ptr, ptr %d_nv.i.i.i.i, align 8
  %d_nchildren.i.i.i.i = getelementptr inbounds i8, ptr %2, i64 12
  %bf.load.i.i.i.i = load i32, ptr %d_nchildren.i.i.i.i, align 4
  %bf.clear.i.i.i.i = and i32 %bf.load.i.i.i.i, 67108863
  %3 = load i32, ptr %d_nvMaxChildren.i.i.i.i, align 8
  %cmp.i.i.i.i = icmp eq i32 %bf.clear.i.i.i.i, %3
  br i1 %cmp.i.i.i.i, label %if.then.i.i.i, label %_ZN4cvc58internal11NodeBuilder30allocateNvIfNecessaryForAppendEv.exit.i.i

if.then.i.i.i:                                    ; preds = %for.body.i
  %4 = shl nuw nsw i32 %bf.clear.i.i.i.i, 1
  %5 = tail call i32 @llvm.umin.i32(i32 %4, i32 67108863)
  %cond.i.i.i.i = zext nneg i32 %5 to i64
  tail call void @_ZN4cvc58internal11NodeBuilder7reallocEm(ptr noundef nonnull align 8 dereferenceable(116) %this, i64 noundef %cond.i.i.i.i)
  br label %_ZN4cvc58internal11NodeBuilder30allocateNvIfNecessaryForAppendEv.exit.i.i

_ZN4cvc58internal11NodeBuilder30allocateNvIfNecessaryForAppendEv.exit.i.i: ; preds = %if.then.i.i.i, %for.body.i
  %6 = load ptr, ptr %i.sroa.0.04.i, align 8
  %bf.load.i.i.i = load i64, ptr %6, align 8
  %bf.lshr.i.i.i = lshr i64 %bf.load.i.i.i, 40
  %7 = trunc i64 %bf.lshr.i.i.i to i32
  %bf.cast.i.i.i = and i32 %7, 1048575
  %cmp.i.i.i = icmp ult i32 %bf.cast.i.i.i, 1048574
  br i1 %cmp.i.i.i, label %if.then.i2.i.i, label %if.else.i.i.i

if.then.i2.i.i:                                   ; preds = %_ZN4cvc58internal11NodeBuilder30allocateNvIfNecessaryForAppendEv.exit.i.i
  %bf.value.i.i.i = add i64 %bf.load.i.i.i, 1099511627776
  %bf.shl.i.i.i = and i64 %bf.value.i.i.i, 1152920405095219200
  %bf.clear7.i.i.i = and i64 %bf.load.i.i.i, -1152920405095219201
  %bf.set.i.i.i = or disjoint i64 %bf.shl.i.i.i, %bf.clear7.i.i.i
  store i64 %bf.set.i.i.i, ptr %6, align 8
  br label %_ZN4cvc58internal11NodeBuilder6appendERKNS0_8TypeNodeE.exit.i

if.else.i.i.i:                                    ; preds = %_ZN4cvc58internal11NodeBuilder30allocateNvIfNecessaryForAppendEv.exit.i.i
  %cmp12.i.i.i = icmp eq i32 %bf.cast.i.i.i, 1048574
  br i1 %cmp12.i.i.i, label %if.then13.i.i.i, label %_ZN4cvc58internal11NodeBuilder6appendERKNS0_8TypeNodeE.exit.i

if.then13.i.i.i:                                  ; preds = %if.else.i.i.i
  %bf.set23.i.i.i = or i64 %bf.load.i.i.i, 1152920405095219200
  store i64 %bf.set23.i.i.i, ptr %6, align 8
  tail call void @_ZN4cvc58internal4expr9NodeValue20markRefCountMaxedOutEv(ptr noundef nonnull align 8 dereferenceable(16) %6)
  br label %_ZN4cvc58internal11NodeBuilder6appendERKNS0_8TypeNodeE.exit.i

_ZN4cvc58internal11NodeBuilder6appendERKNS0_8TypeNodeE.exit.i: ; preds = %if.then13.i.i.i, %if.else.i.i.i, %if.then.i2.i.i
  %8 = load ptr, ptr %d_nv.i.i.i.i, align 8
  %d_children.i.i = getelementptr inbounds i8, ptr %8, i64 16
  %d_nchildren.i.i = getelementptr inbounds i8, ptr %8, i64 12
  %bf.load.i.i = load i32, ptr %d_nchildren.i.i, align 4
  %bf.clear.i.i = and i32 %bf.load.i.i, 67108863
  %inc.i.i = add i32 %bf.load.i.i, 1
  %bf.value.i.i = and i32 %inc.i.i, 67108863
  %bf.clear5.i.i = and i32 %bf.load.i.i, -67108864
  %bf.set.i.i = or disjoint i32 %bf.value.i.i, %bf.clear5.i.i
  store i32 %bf.set.i.i, ptr %d_nchildren.i.i, align 4
  %idxprom.i.i = zext nneg i32 %bf.clear.i.i to i64
  %arrayidx.i.i = getelementptr inbounds [0 x ptr], ptr %d_children.i.i, i64 0, i64 %idxprom.i.i
  store ptr %6, ptr %arrayidx.i.i, align 8
  %incdec.ptr.i.i = getelementptr inbounds i8, ptr %i.sroa.0.04.i, i64 8
  %cmp.i.not.i = icmp eq ptr %incdec.ptr.i.i, %1
  br i1 %cmp.i.not.i, label %_ZN4cvc58internal11NodeBuilder6appendIN9__gnu_cxx17__normal_iteratorIPKNS0_8TypeNodeESt6vectorIS5_SaIS5_EEEEEERS1_RKT_SF_.exit, label %for.body.i, !llvm.loop !36

_ZN4cvc58internal11NodeBuilder6appendIN9__gnu_cxx17__normal_iteratorIPKNS0_8TypeNodeESt6vectorIS5_SaIS5_EEEEEERS1_RKT_SF_.exit: ; preds = %_ZN4cvc58internal11NodeBuilder6appendERKNS0_8TypeNodeE.exit.i, %entry
  ret ptr %this
}